target datalayout = "e-m:e-p270:32:32-p271:32:32-p272:64:64-i64:64-i128:128-f80:128-n8:16:32:64-S128"
target triple = "x86_64-pc-linux-gnu"

%struct.lzma_options_lzma = type { i32, ptr, i32, i32, i32, i32, i32, i32, i32, i32, i32, i32, i32, i32, i32, i32, i32, i32, i32, i32, i32, i32, ptr, ptr }

; Function Attrs: nounwind uwtable
define dso_local i64 @lzma_lzma_decoder_memusage_nocheck(ptr noundef %0) #0 {
  %2 = alloca ptr, align 8
  %3 = alloca ptr, align 8
  store ptr %0, ptr %2, align 8
  %4 = load ptr, ptr %2, align 8
  store ptr %4, ptr %3, align 8
  %5 = load ptr, ptr %3, align 8
  %6 = getelementptr inbounds %struct.lzma_options_lzma, ptr %5, i32 0, i32 0
  %7 = load i32, ptr %6, align 8
  %8 = zext i32 %7 to i64
  %9 = call i64 @lzma_lz_decoder_memusage(i64 noundef %8)
  %10 = add i64 28352, %9
  ret i64 %10
}

; Function Attrs: nounwind uwtable
define internal zeroext i1 @is_lclppb_valid(ptr noundef %0) #0 {
  %2 = alloca ptr, align 8
  store ptr %0, ptr %2, align 8
  %3 = load ptr, ptr %2, align 8
  %4 = getelementptr inbounds %struct.lzma_options_lzma, ptr %3, i32 0, i32 3
  %5 = load i32, ptr %4, align 4
  %6 = icmp ule i32 %5, 4
  br i1 %6, label %7, label %26

7:                                                ; preds = %1
  %8 = load ptr, ptr %2, align 8
  %9 = getelementptr inbounds %struct.lzma_options_lzma, ptr %8, i32 0, i32 4
  %10 = load i32, ptr %9, align 8
  %11 = icmp ule i32 %10, 4
  br i1 %11, label %12, label %26

12:                                               ; preds = %7
  %13 = load ptr, ptr %2, align 8
  %14 = getelementptr inbounds %struct.lzma_options_lzma, ptr %13, i32 0, i32 3
  %15 = load i32, ptr %14, align 4
  %16 = load ptr, ptr %2, align 8
  %17 = getelementptr inbounds %struct.lzma_options_lzma, ptr %16, i32 0, i32 4
  %18 = load i32, ptr %17, align 8
  %19 = add i32 %15, %18
  %20 = icmp ule i32 %19, 4
  br i1 %20, label %21, label %26

21:                                               ; preds = %12
  %22 = load ptr, ptr %2, align 8
  %23 = getelementptr inbounds %struct.lzma_options_lzma, ptr %22, i32 0, i32 5
  %24 = load i32, ptr %23, align 4
  %25 = icmp ule i32 %24, 4
  br label %26

26:                                               ; preds = %21, %12, %7, %1
  %27 = phi i1 [ false, %12 ], [ false, %7 ], [ false, %1 ], [ %25, %21 ]
  ret i1 %27
}

; Function Attrs: nounwind uwtable
define dso_local i64 @lzma_lzma_decoder_memusage(ptr noundef %0) #0 {
  %2 = alloca i64, align 8
  %3 = alloca ptr, align 8
  store ptr %0, ptr %3, align 8
  %4 = load ptr, ptr %3, align 8
  %5 = call zeroext i1 @is_lclppb_valid(ptr noundef %4)
  br i1 %5, label %7, label %6

6:                                                ; preds = %1
  store i64 -1, ptr %2, align 8
  br label %10

7:                                                ; preds = %1
  %8 = load ptr, ptr %3, align 8
  %9 = call i64 @lzma_lzma_decoder_memusage_nocheck(ptr noundef %8)
  store i64 %9, ptr %2, align 8
  br label %10

10:                                               ; preds = %7, %6
  %11 = load i64, ptr %2, align 8
  ret i64 %11
}