; Function Attrs: nounwind uwtable
define dso_local i64 @lzma_lzma_decoder_memusage(ptr noundef readonly captures(none) %0) local_unnamed_addr #0 {
  %2 = getelementptr inbounds nuw i8, ptr %0, i64 20
  %3 = load i32, ptr %2, align 4
  %4 = icmp ult i32 %3, 5
  br i1 %4, label %5, label %is_lclppb_valid.exit.thread

5:                                                ; preds = %1
  %6 = getelementptr inbounds nuw i8, ptr %0, i64 24
  %7 = load i32, ptr %6, align 8
  %8 = icmp ult i32 %7, 5
  %9 = add nuw nsw i32 %7, %3
  %10 = icmp ult i32 %9, 5
  %or.cond.i = select i1 %8, i1 %10, i1 false
  br i1 %or.cond.i, label %is_lclppb_valid.exit, label %is_lclppb_valid.exit.thread

is_lclppb_valid.exit:                             ; preds = %5
  %11 = getelementptr inbounds nuw i8, ptr %0, i64 28
  %12 = load i32, ptr %11, align 4
  %13 = icmp ult i32 %12, 5
  br i1 %13, label %14, label %is_lclppb_valid.exit.thread

14:                                               ; preds = %is_lclppb_valid.exit
  %15 = load i32, ptr %0, align 8
  %16 = zext i32 %15 to i64
  %17 = tail call i64 @lzma_lz_decoder_memusage(i64 noundef %16) #9
  %18 = add i64 %17, 28352
  br label %is_lclppb_valid.exit.thread

is_lclppb_valid.exit.thread:                      ; preds = %1, %5, %is_lclppb_valid.exit, %14
  %.0 = phi i64 [ %18, %14 ], [ -1, %is_lclppb_valid.exit ], [ -1, %5 ], [ -1, %1 ]
  ret i64 %.0
}